target datalayout = "e-m:e-p270:32:32-p271:32:32-p272:64:64-i64:64-i128:128-f80:128-n8:16:32:64-S128"
target triple = "x86_64-pc-linux-gnu"

%struct.ident_t = type { i32, i32, i32, i32, ptr }
%"struct.OpenSubdiv::v3_6_0::Osd::BufferDescriptor" = type { i32, i32, i32 }

@2 = private unnamed_addr constant %struct.ident_t { i32 0, i32 2, i32 0, i32 22, ptr @0 }, align 8

; Function Attrs: mustprogress uwtable
define void @_ZN10OpenSubdiv6v3_6_03Osd15OmpEvalStencilsEPKfRKNS1_16BufferDescriptorEPfS6_S7_S6_S7_S6_S7_S6_S7_S6_S7_S6_PKiS9_S9_S3_S3_S3_S3_S3_S3_ii(ptr noundef %0, ptr noundef nonnull align 4 dereferenceable(12) %1, ptr noundef %2, ptr noundef nonnull align 4 dereferenceable(12) %3, ptr noundef %4, ptr noundef nonnull align 4 dereferenceable(12) %5, ptr noundef %6, ptr noundef nonnull align 4 dereferenceable(12) %7, ptr noundef %8, ptr noundef nonnull align 4 dereferenceable(12) %9, ptr noundef %10, ptr noundef nonnull align 4 dereferenceable(12) %11, ptr noundef %12, ptr noundef nonnull align 4 dereferenceable(12) %13, ptr noundef %14, ptr noundef %15, ptr noundef %16, ptr noundef %17, ptr noundef %18, ptr noundef %19, ptr noundef %20, ptr noundef %21, ptr noundef %22, i32 noundef %23, i32 noundef %24) #0 {
  %26 = alloca ptr, align 8
  %27 = alloca ptr, align 8
  %28 = alloca ptr, align 8
  %29 = alloca ptr, align 8
  %30 = alloca ptr, align 8
  %31 = alloca ptr, align 8
  %32 = alloca ptr, align 8
  %33 = alloca ptr, align 8
  %34 = alloca ptr, align 8
  %35 = alloca ptr, align 8
  %36 = alloca ptr, align 8
  %37 = alloca ptr, align 8
  %38 = alloca ptr, align 8
  %39 = alloca ptr, align 8
  %40 = alloca ptr, align 8
  %41 = alloca ptr, align 8
  %42 = alloca ptr, align 8
  %43 = alloca ptr, align 8
  %44 = alloca ptr, align 8
  %45 = alloca ptr, align 8
  %46 = alloca ptr, align 8
  %47 = alloca ptr, align 8
  %48 = alloca ptr, align 8
  %49 = alloca i32, align 4
  %50 = alloca i32, align 4
  %51 = alloca i32, align 4
  %52 = alloca i32, align 4
  %53 = alloca ptr, align 8
  %54 = alloca ptr, align 8
  %55 = alloca ptr, align 8
  %56 = alloca ptr, align 8
  %57 = alloca ptr, align 8
  %58 = alloca ptr, align 8
  store ptr %0, ptr %26, align 8
  store ptr %1, ptr %27, align 8
  store ptr %2, ptr %28, align 8
  store ptr %3, ptr %29, align 8
  store ptr %4, ptr %30, align 8
  store ptr %5, ptr %31, align 8
  store ptr %6, ptr %32, align 8
  store ptr %7, ptr %33, align 8
  store ptr %8, ptr %34, align 8
  store ptr %9, ptr %35, align 8
  store ptr %10, ptr %36, align 8
  store ptr %11, ptr %37, align 8
  store ptr %12, ptr %38, align 8
  store ptr %13, ptr %39, align 8
  store ptr %14, ptr %40, align 8
  store ptr %15, ptr %41, align 8
  store ptr %16, ptr %42, align 8
  store ptr %17, ptr %43, align 8
  store ptr %18, ptr %44, align 8
  store ptr %19, ptr %45, align 8
  store ptr %20, ptr %46, align 8
  store ptr %21, ptr %47, align 8
  store ptr %22, ptr %48, align 8
  store i32 %23, ptr %49, align 4
  store i32 %24, ptr %50, align 4
  %59 = load i32, ptr %49, align 4
  %60 = icmp sgt i32 %59, 0
  br i1 %60, label %61, label %63

61:                                               ; preds = %25
  %62 = load i32, ptr %49, align 4
  br label %64

63:                                               ; preds = %25
  br label %64

64:                                               ; preds = %63, %61
  %65 = phi i32 [ %62, %61 ], [ 0, %63 ]
  store i32 %65, ptr %49, align 4
  %66 = load ptr, ptr %27, align 8
  %67 = getelementptr inbounds nuw %"struct.OpenSubdiv::v3_6_0::Osd::BufferDescriptor", ptr %66, i32 0, i32 0
  %68 = load i32, ptr %67, align 4
  %69 = load ptr, ptr %26, align 8
  %70 = sext i32 %68 to i64
  %71 = getelementptr inbounds float, ptr %69, i64 %70
  store ptr %71, ptr %26, align 8
  %72 = load ptr, ptr %29, align 8
  %73 = getelementptr inbounds nuw %"struct.OpenSubdiv::v3_6_0::Osd::BufferDescriptor", ptr %72, i32 0, i32 0
  %74 = load i32, ptr %73, align 4
  %75 = load ptr, ptr %28, align 8
  %76 = sext i32 %74 to i64
  %77 = getelementptr inbounds float, ptr %75, i64 %76
  store ptr %77, ptr %28, align 8
  %78 = load ptr, ptr %31, align 8
  %79 = getelementptr inbounds nuw %"struct.OpenSubdiv::v3_6_0::Osd::BufferDescriptor", ptr %78, i32 0, i32 0
  %80 = load i32, ptr %79, align 4
  %81 = load ptr, ptr %30, align 8
  %82 = sext i32 %80 to i64
  %83 = getelementptr inbounds float, ptr %81, i64 %82
  store ptr %83, ptr %30, align 8
  %84 = load ptr, ptr %33, align 8
  %85 = getelementptr inbounds nuw %"struct.OpenSubdiv::v3_6_0::Osd::BufferDescriptor", ptr %84, i32 0, i32 0
  %86 = load i32, ptr %85, align 4
  %87 = load ptr, ptr %32, align 8
  %88 = sext i32 %86 to i64
  %89 = getelementptr inbounds float, ptr %87, i64 %88
  store ptr %89, ptr %32, align 8
  %90 = load ptr, ptr %35, align 8
  %91 = getelementptr inbounds nuw %"struct.OpenSubdiv::v3_6_0::Osd::BufferDescriptor", ptr %90, i32 0, i32 0
  %92 = load i32, ptr %91, align 4
  %93 = load ptr, ptr %34, align 8
  %94 = sext i32 %92 to i64
  %95 = getelementptr inbounds float, ptr %93, i64 %94
  store ptr %95, ptr %34, align 8
  %96 = load ptr, ptr %37, align 8
  %97 = getelementptr inbounds nuw %"struct.OpenSubdiv::v3_6_0::Osd::BufferDescriptor", ptr %96, i32 0, i32 0
  %98 = load i32, ptr %97, align 4
  %99 = load ptr, ptr %36, align 8
  %100 = sext i32 %98 to i64
  %101 = getelementptr inbounds float, ptr %99, i64 %100
  store ptr %101, ptr %36, align 8
  %102 = load ptr, ptr %39, align 8
  %103 = getelementptr inbounds nuw %"struct.OpenSubdiv::v3_6_0::Osd::BufferDescriptor", ptr %102, i32 0, i32 0
  %104 = load i32, ptr %103, align 4
  %105 = load ptr, ptr %38, align 8
  %106 = sext i32 %104 to i64
  %107 = getelementptr inbounds float, ptr %105, i64 %106
  store ptr %107, ptr %38, align 8
  %108 = call i32 @omp_get_max_threads()
  store i32 %108, ptr %51, align 4
  %109 = load i32, ptr %50, align 4
  %110 = load i32, ptr %49, align 4
  %111 = sub nsw i32 %109, %110
  store i32 %111, ptr %52, align 4
  %112 = load ptr, ptr %27, align 8
  %113 = getelementptr inbounds nuw %"struct.OpenSubdiv::v3_6_0::Osd::BufferDescriptor", ptr %112, i32 0, i32 1
  %114 = load i32, ptr %113, align 4
  %115 = load i32, ptr %51, align 4
  %116 = mul nsw i32 %114, %115
  %117 = sext i32 %116 to i64
  %118 = mul i64 %117, 4
  %119 = alloca i8, i64 %118, align 16
  store ptr %119, ptr %53, align 8
  %120 = load ptr, ptr %27, align 8
  %121 = getelementptr inbounds nuw %"struct.OpenSubdiv::v3_6_0::Osd::BufferDescriptor", ptr %120, i32 0, i32 1
  %122 = load i32, ptr %121, align 4
  %123 = load i32, ptr %51, align 4
  %124 = mul nsw i32 %122, %123
  %125 = sext i32 %124 to i64
  %126 = mul i64 %125, 4
  %127 = alloca i8, i64 %126, align 16
  store ptr %127, ptr %54, align 8
  %128 = load ptr, ptr %27, align 8
  %129 = getelementptr inbounds nuw %"struct.OpenSubdiv::v3_6_0::Osd::BufferDescriptor", ptr %128, i32 0, i32 1
  %130 = load i32, ptr %129, align 4
  %131 = load i32, ptr %51, align 4
  %132 = mul nsw i32 %130, %131
  %133 = sext i32 %132 to i64
  %134 = mul i64 %133, 4
  %135 = alloca i8, i64 %134, align 16
  store ptr %135, ptr %55, align 8
  %136 = load ptr, ptr %27, align 8
  %137 = getelementptr inbounds nuw %"struct.OpenSubdiv::v3_6_0::Osd::BufferDescriptor", ptr %136, i32 0, i32 1
  %138 = load i32, ptr %137, align 4
  %139 = load i32, ptr %51, align 4
  %140 = mul nsw i32 %138, %139
  %141 = sext i32 %140 to i64
  %142 = mul i64 %141, 4
  %143 = alloca i8, i64 %142, align 16
  store ptr %143, ptr %56, align 8
  %144 = load ptr, ptr %27, align 8
  %145 = getelementptr inbounds nuw %"struct.OpenSubdiv::v3_6_0::Osd::BufferDescriptor", ptr %144, i32 0, i32 1
  %146 = load i32, ptr %145, align 4
  %147 = load i32, ptr %51, align 4
  %148 = mul nsw i32 %146, %147
  %149 = sext i32 %148 to i64
  %150 = mul i64 %149, 4
  %151 = alloca i8, i64 %150, align 16
  store ptr %151, ptr %57, align 8
  %152 = load ptr, ptr %27, align 8
  %153 = getelementptr inbounds nuw %"struct.OpenSubdiv::v3_6_0::Osd::BufferDescriptor", ptr %152, i32 0, i32 1
  %154 = load i32, ptr %153, align 4
  %155 = load i32, ptr %51, align 4
  %156 = mul nsw i32 %154, %155
  %157 = sext i32 %156 to i64
  %158 = mul i64 %157, 4
  %159 = alloca i8, i64 %158, align 16
  store ptr %159, ptr %58, align 8
  %160 = load ptr, ptr %27, align 8
  %161 = load ptr, ptr %29, align 8
  %162 = load ptr, ptr %31, align 8
  %163 = load ptr, ptr %33, align 8
  %164 = load ptr, ptr %35, align 8
  %165 = load ptr, ptr %37, align 8
  %166 = load ptr, ptr %39, align 8
  call void (ptr, i32, ptr, ...) @__kmpc_fork_call(ptr @2, i32 31, ptr @_ZN10OpenSubdiv6v3_6_03Osd15OmpEvalStencilsEPKfRKNS1_16BufferDescriptorEPfS6_S7_S6_S7_S6_S7_S6_S7_S6_S7_S6_PKiS9_S9_S3_S3_S3_S3_S3_S3_ii.omp_outlined, ptr %52, ptr %49, ptr %42, ptr %41, ptr %43, ptr %44, ptr %45, ptr %46, ptr %47, ptr %48, ptr %53, ptr %160, ptr %54, ptr %55, ptr %56, ptr %57, ptr %58, ptr %161, ptr %162, ptr %163, ptr %164, ptr %165, ptr %166, ptr %40, ptr %26, ptr %28, ptr %30, ptr %32, ptr %34, ptr %36, ptr %38)
  ret void
}