; Function Attrs: mustprogress nounwind uwtable
define void @_ZN10OpenSubdiv6v3_6_03Osd15OmpEvalStencilsEPKfRKNS1_16BufferDescriptorEPfS6_S7_S6_S7_S6_S7_S6_S7_S6_S7_S6_PKiS9_S9_S3_S3_S3_S3_S3_S3_ii(ptr noundef %0, ptr noundef nonnull align 4 dereferenceable(12) %1, ptr noundef %2, ptr noundef nonnull align 4 dereferenceable(12) %3, ptr noundef %4, ptr noundef nonnull align 4 dereferenceable(12) %5, ptr noundef %6, ptr noundef nonnull align 4 dereferenceable(12) %7, ptr noundef %8, ptr noundef nonnull align 4 dereferenceable(12) %9, ptr noundef %10, ptr noundef nonnull align 4 dereferenceable(12) %11, ptr noundef %12, ptr noundef nonnull align 4 dereferenceable(12) %13, ptr noundef %14, ptr noundef %15, ptr noundef %16, ptr noundef %17, ptr noundef %18, ptr noundef %19, ptr noundef %20, ptr noundef %21, ptr noundef %22, i32 noundef %23, i32 noundef %24) local_unnamed_addr #0 {
  %26 = alloca ptr, align 8
  %27 = alloca ptr, align 8
  %28 = alloca ptr, align 8
  %29 = alloca ptr, align 8
  %30 = alloca ptr, align 8
  %31 = alloca ptr, align 8
  %32 = alloca ptr, align 8
  %33 = alloca ptr, align 8
  %34 = alloca ptr, align 8
  %35 = alloca ptr, align 8
  %36 = alloca ptr, align 8
  %37 = alloca ptr, align 8
  %38 = alloca ptr, align 8
  %39 = alloca ptr, align 8
  %40 = alloca ptr, align 8
  %41 = alloca ptr, align 8
  %42 = alloca i32, align 4
  %43 = alloca i32, align 4
  %44 = alloca ptr, align 8
  %45 = alloca ptr, align 8
  %46 = alloca ptr, align 8
  %47 = alloca ptr, align 8
  %48 = alloca ptr, align 8
  %49 = alloca ptr, align 8
  store ptr %14, ptr %33, align 8
  store ptr %15, ptr %34, align 8
  store ptr %16, ptr %35, align 8
  store ptr %17, ptr %36, align 8
  store ptr %18, ptr %37, align 8
  store ptr %19, ptr %38, align 8
  store ptr %20, ptr %39, align 8
  store ptr %21, ptr %40, align 8
  store ptr %22, ptr %41, align 8
  %50 = tail call i32 @llvm.smax.i32(i32 %23, i32 0)
  store i32 %50, ptr %42, align 4
  %51 = load i32, ptr %1, align 4
  %52 = sext i32 %51 to i64
  %53 = getelementptr inbounds float, ptr %0, i64 %52
  store ptr %53, ptr %26, align 8
  %54 = load i32, ptr %3, align 4
  %55 = sext i32 %54 to i64
  %56 = getelementptr inbounds float, ptr %2, i64 %55
  store ptr %56, ptr %27, align 8
  %57 = load i32, ptr %5, align 4
  %58 = sext i32 %57 to i64
  %59 = getelementptr inbounds float, ptr %4, i64 %58
  store ptr %59, ptr %28, align 8
  %60 = load i32, ptr %7, align 4
  %61 = sext i32 %60 to i64
  %62 = getelementptr inbounds float, ptr %6, i64 %61
  store ptr %62, ptr %29, align 8
  %63 = load i32, ptr %9, align 4
  %64 = sext i32 %63 to i64
  %65 = getelementptr inbounds float, ptr %8, i64 %64
  store ptr %65, ptr %30, align 8
  %66 = load i32, ptr %11, align 4
  %67 = sext i32 %66 to i64
  %68 = getelementptr inbounds float, ptr %10, i64 %67
  store ptr %68, ptr %31, align 8
  %69 = load i32, ptr %13, align 4
  %70 = sext i32 %69 to i64
  %71 = getelementptr inbounds float, ptr %12, i64 %70
  store ptr %71, ptr %32, align 8
  %72 = tail call i32 @omp_get_max_threads()
  %73 = sub nsw i32 %24, %50
  store i32 %73, ptr %43, align 4
  %74 = getelementptr inbounds nuw i8, ptr %1, i64 4
  %75 = load i32, ptr %74, align 4
  %76 = mul nsw i32 %75, %72
  %77 = sext i32 %76 to i64
  %78 = shl nsw i64 %77, 2
  %79 = alloca i8, i64 %78, align 16
  store ptr %79, ptr %44, align 8
  %80 = alloca i8, i64 %78, align 16
  store ptr %80, ptr %45, align 8
  %81 = alloca i8, i64 %78, align 16
  store ptr %81, ptr %46, align 8
  %82 = alloca i8, i64 %78, align 16
  store ptr %82, ptr %47, align 8
  %83 = alloca i8, i64 %78, align 16
  store ptr %83, ptr %48, align 8
  %84 = alloca i8, i64 %78, align 16
  store ptr %84, ptr %49, align 8
  call void (ptr, i32, ptr, ...) @__kmpc_fork_call(ptr nonnull @2, i32 31, ptr nonnull @_ZN10OpenSubdiv6v3_6_03Osd15OmpEvalStencilsEPKfRKNS1_16BufferDescriptorEPfS6_S7_S6_S7_S6_S7_S6_S7_S6_S7_S6_PKiS9_S9_S3_S3_S3_S3_S3_S3_ii.omp_outlined, ptr nonnull %43, ptr nonnull %42, ptr nonnull %35, ptr nonnull %34, ptr nonnull %36, ptr nonnull %37, ptr nonnull %38, ptr nonnull %39, ptr nonnull %40, ptr nonnull %41, ptr nonnull %44, ptr nonnull %1, ptr nonnull %45, ptr nonnull %46, ptr nonnull %47, ptr nonnull %48, ptr nonnull %49, ptr nonnull %3, ptr nonnull %5, ptr nonnull %7, ptr nonnull %9, ptr nonnull %11, ptr nonnull %13, ptr nonnull %33, ptr nonnull %26, ptr nonnull %27, ptr nonnull %28, ptr nonnull %29, ptr nonnull %30, ptr nonnull %31, ptr nonnull %32)
  ret void
}